target datalayout = "e-m:e-p270:32:32-p271:32:32-p272:64:64-i64:64-i128:128-f80:128-n8:16:32:64-S128"
target triple = "x86_64-pc-linux-gnu"

%struct._snmp_ue_assoc_t = type { %struct._snmp_user_t, %struct.snmp_engine_id_t, i32, i32, ptr }
%struct._snmp_user_t = type { %struct._snmp_usm_key, i32, %struct._snmp_usm_key, %struct._snmp_usm_key, ptr, %struct._snmp_usm_key, %struct._snmp_usm_key }
%struct._snmp_usm_key = type { ptr, i32 }
%struct.snmp_engine_id_t = type { ptr, i32 }

@.str.472 = private unnamed_addr constant [1 x i8] zeroinitializer, align 1

; Function Attrs: nounwind uwtable
define internal void @snmp_users_privPassword_tostr_cb(ptr noundef %0, ptr noundef %1, ptr noundef %2, ptr noundef %3, ptr noundef %4) #0 {
  %6 = alloca ptr, align 8
  %7 = alloca ptr, align 8
  %8 = alloca ptr, align 8
  %9 = alloca ptr, align 8
  %10 = alloca ptr, align 8
  store ptr %0, ptr %6, align 8
  store ptr %1, ptr %7, align 8
  store ptr %2, ptr %8, align 8
  store ptr %3, ptr %9, align 8
  store ptr %4, ptr %10, align 8
  %11 = load ptr, ptr %6, align 8
  %12 = getelementptr inbounds %struct._snmp_ue_assoc_t, ptr %11, i32 0, i32 0
  %13 = getelementptr inbounds %struct._snmp_user_t, ptr %12, i32 0, i32 5
  %14 = getelementptr inbounds %struct._snmp_usm_key, ptr %13, i32 0, i32 0
  %15 = load ptr, ptr %14, align 8
  %16 = icmp ne ptr %15, null
  br i1 %16, label %17, label %35

17:                                               ; preds = %5
  %18 = load ptr, ptr %6, align 8
  %19 = getelementptr inbounds %struct._snmp_ue_assoc_t, ptr %18, i32 0, i32 0
  %20 = getelementptr inbounds %struct._snmp_user_t, ptr %19, i32 0, i32 5
  %21 = getelementptr inbounds %struct._snmp_usm_key, ptr %20, i32 0, i32 0
  %22 = load ptr, ptr %21, align 8
  %23 = load ptr, ptr %6, align 8
  %24 = getelementptr inbounds %struct._snmp_ue_assoc_t, ptr %23, i32 0, i32 0
  %25 = getelementptr inbounds %struct._snmp_user_t, ptr %24, i32 0, i32 5
  %26 = getelementptr inbounds %struct._snmp_usm_key, ptr %25, i32 0, i32 1
  %27 = load i32, ptr %26, align 8
  %28 = call ptr @uat_esc(ptr noundef %22, i32 noundef %27)
  %29 = load ptr, ptr %7, align 8
  store ptr %28, ptr %29, align 8
  %30 = load ptr, ptr %7, align 8
  %31 = load ptr, ptr %30, align 8
  %32 = call i64 @strlen(ptr noundef %31) #8
  %33 = trunc i64 %32 to i32
  %34 = load ptr, ptr %8, align 8
  store i32 %33, ptr %34, align 4
  br label %39

35:                                               ; preds = %5
  %36 = call noalias ptr @g_strdup(ptr noundef @.str.472)
  %37 = load ptr, ptr %7, align 8
  store ptr %36, ptr %37, align 8
  %38 = load ptr, ptr %8, align 8
  store i32 0, ptr %38, align 4
  br label %39

39:                                               ; preds = %35, %17
  ret void
}